target datalayout = "e-m:e-p270:32:32-p271:32:32-p272:64:64-i64:64-i128:128-f80:128-n8:16:32:64-S128"
target triple = "x86_64-pc-linux-gnu"

%struct.Vec_Int_t_ = type { i32, i32, ptr }
%struct.Vec_Flt_t_ = type { i32, i32, ptr }
%struct.Dam_Man_t_ = type { ptr, ptr, ptr, ptr, ptr, ptr, ptr, ptr, ptr, ptr, ptr, i64, i32, i32, i32, i32, i32 }
%struct.Hash_IntMan_t_ = type { ptr, ptr, i32 }
%struct.Vec_Que_t_ = type { i32, i32, ptr, ptr, ptr }

; Function Attrs: inlinehint nounwind uwtable
define internal void @Vec_IntFree(ptr noundef %0) #2 {
  %2 = alloca ptr, align 8
  store ptr %0, ptr %2, align 8, !tbaa !3
  %3 = load ptr, ptr %2, align 8, !tbaa !3
  %4 = getelementptr inbounds nuw %struct.Vec_Int_t_, ptr %3, i32 0, i32 2
  %5 = load ptr, ptr %4, align 8, !tbaa !15
  %6 = icmp ne ptr %5, null
  br i1 %6, label %7, label %13

7:                                                ; preds = %1
  %8 = load ptr, ptr %2, align 8, !tbaa !3
  %9 = getelementptr inbounds nuw %struct.Vec_Int_t_, ptr %8, i32 0, i32 2
  %10 = load ptr, ptr %9, align 8, !tbaa !15
  call void @free(ptr noundef %10) #13
  %11 = load ptr, ptr %2, align 8, !tbaa !3
  %12 = getelementptr inbounds nuw %struct.Vec_Int_t_, ptr %11, i32 0, i32 2
  store ptr null, ptr %12, align 8, !tbaa !15
  br label %14

13:                                               ; preds = %1
  br label %14

14:                                               ; preds = %13, %7
  %15 = load ptr, ptr %2, align 8, !tbaa !3
  %16 = icmp ne ptr %15, null
  br i1 %16, label %17, label %19

17:                                               ; preds = %14
  %18 = load ptr, ptr %2, align 8, !tbaa !3
  call void @free(ptr noundef %18) #13
  store ptr null, ptr %2, align 8, !tbaa !3
  br label %20

19:                                               ; preds = %14
  br label %20

20:                                               ; preds = %19, %17
  ret void
}

; Function Attrs: inlinehint nounwind uwtable
define internal void @Vec_QueFree(ptr noundef %0) #2 {
  %2 = alloca ptr, align 8
  store ptr %0, ptr %2, align 8, !tbaa !95
  %3 = load ptr, ptr %2, align 8, !tbaa !95
  %4 = getelementptr inbounds nuw %struct.Vec_Que_t_, ptr %3, i32 0, i32 3
  %5 = load ptr, ptr %4, align 8, !tbaa !141
  %6 = icmp ne ptr %5, null
  br i1 %6, label %7, label %13

7:                                                ; preds = %1
  %8 = load ptr, ptr %2, align 8, !tbaa !95
  %9 = getelementptr inbounds nuw %struct.Vec_Que_t_, ptr %8, i32 0, i32 3
  %10 = load ptr, ptr %9, align 8, !tbaa !141
  call void @free(ptr noundef %10) #13
  %11 = load ptr, ptr %2, align 8, !tbaa !95
  %12 = getelementptr inbounds nuw %struct.Vec_Que_t_, ptr %11, i32 0, i32 3
  store ptr null, ptr %12, align 8, !tbaa !141
  br label %14

13:                                               ; preds = %1
  br label %14

14:                                               ; preds = %13, %7
  %15 = load ptr, ptr %2, align 8, !tbaa !95
  %16 = getelementptr inbounds nuw %struct.Vec_Que_t_, ptr %15, i32 0, i32 2
  %17 = load ptr, ptr %16, align 8, !tbaa !140
  %18 = icmp ne ptr %17, null
  br i1 %18, label %19, label %25

19:                                               ; preds = %14
  %20 = load ptr, ptr %2, align 8, !tbaa !95
  %21 = getelementptr inbounds nuw %struct.Vec_Que_t_, ptr %20, i32 0, i32 2
  %22 = load ptr, ptr %21, align 8, !tbaa !140
  call void @free(ptr noundef %22) #13
  %23 = load ptr, ptr %2, align 8, !tbaa !95
  %24 = getelementptr inbounds nuw %struct.Vec_Que_t_, ptr %23, i32 0, i32 2
  store ptr null, ptr %24, align 8, !tbaa !140
  br label %26

25:                                               ; preds = %14
  br label %26

26:                                               ; preds = %25, %19
  %27 = load ptr, ptr %2, align 8, !tbaa !95
  %28 = icmp ne ptr %27, null
  br i1 %28, label %29, label %31

29:                                               ; preds = %26
  %30 = load ptr, ptr %2, align 8, !tbaa !95
  call void @free(ptr noundef %30) #13
  store ptr null, ptr %2, align 8, !tbaa !95
  br label %32

31:                                               ; preds = %26
  br label %32

32:                                               ; preds = %31, %29
  ret void
}

; Function Attrs: inlinehint nounwind uwtable
define internal void @Hash_IntManStop(ptr noundef %0) #2 {
  %2 = alloca ptr, align 8
  store ptr %0, ptr %2, align 8, !tbaa !96
  %3 = load ptr, ptr %2, align 8, !tbaa !96
  %4 = getelementptr inbounds nuw %struct.Hash_IntMan_t_, ptr %3, i32 0, i32 1
  %5 = load ptr, ptr %4, align 8, !tbaa !97
  call void @Vec_IntFree(ptr noundef %5)
  %6 = load ptr, ptr %2, align 8, !tbaa !96
  %7 = getelementptr inbounds nuw %struct.Hash_IntMan_t_, ptr %6, i32 0, i32 0
  %8 = load ptr, ptr %7, align 8, !tbaa !99
  call void @Vec_IntFree(ptr noundef %8)
  %9 = load ptr, ptr %2, align 8, !tbaa !96
  %10 = icmp ne ptr %9, null
  br i1 %10, label %11, label %13

11:                                               ; preds = %1
  %12 = load ptr, ptr %2, align 8, !tbaa !96
  call void @free(ptr noundef %12) #13
  store ptr null, ptr %2, align 8, !tbaa !96
  br label %14

13:                                               ; preds = %1
  br label %14

14:                                               ; preds = %13, %11
  ret void
}

; Function Attrs: inlinehint nounwind uwtable
define internal void @Vec_QueFreeP(ptr noundef %0) #2 {
  %2 = alloca ptr, align 8
  store ptr %0, ptr %2, align 8, !tbaa !93
  %3 = load ptr, ptr %2, align 8, !tbaa !93
  %4 = load ptr, ptr %3, align 8, !tbaa !95
  %5 = icmp ne ptr %4, null
  br i1 %5, label %6, label %9

6:                                                ; preds = %1
  %7 = load ptr, ptr %2, align 8, !tbaa !93
  %8 = load ptr, ptr %7, align 8, !tbaa !95
  call void @Vec_QueFree(ptr noundef %8)
  br label %9

9:                                                ; preds = %6, %1
  %10 = load ptr, ptr %2, align 8, !tbaa !93
  store ptr null, ptr %10, align 8, !tbaa !95
  ret void
}

; Function Attrs: inlinehint nounwind uwtable
define internal void @Vec_FltFreeP(ptr noundef %0) #2 {
  %2 = alloca ptr, align 8
  store ptr %0, ptr %2, align 8, !tbaa !91
  %3 = load ptr, ptr %2, align 8, !tbaa !91
  %4 = load ptr, ptr %3, align 8, !tbaa !72
  %5 = icmp eq ptr %4, null
  br i1 %5, label %6, label %7

6:                                                ; preds = %1
  br label %32

7:                                                ; preds = %1
  %8 = load ptr, ptr %2, align 8, !tbaa !91
  %9 = load ptr, ptr %8, align 8, !tbaa !72
  %10 = getelementptr inbounds nuw %struct.Vec_Flt_t_, ptr %9, i32 0, i32 2
  %11 = load ptr, ptr %10, align 8, !tbaa !73
  %12 = icmp ne ptr %11, null
  br i1 %12, label %13, label %21

13:                                               ; preds = %7
  %14 = load ptr, ptr %2, align 8, !tbaa !91
  %15 = load ptr, ptr %14, align 8, !tbaa !72
  %16 = getelementptr inbounds nuw %struct.Vec_Flt_t_, ptr %15, i32 0, i32 2
  %17 = load ptr, ptr %16, align 8, !tbaa !73
  call void @free(ptr noundef %17) #13
  %18 = load ptr, ptr %2, align 8, !tbaa !91
  %19 = load ptr, ptr %18, align 8, !tbaa !72
  %20 = getelementptr inbounds nuw %struct.Vec_Flt_t_, ptr %19, i32 0, i32 2
  store ptr null, ptr %20, align 8, !tbaa !73
  br label %22

21:                                               ; preds = %7
  br label %22

22:                                               ; preds = %21, %13
  %23 = load ptr, ptr %2, align 8, !tbaa !91
  %24 = load ptr, ptr %23, align 8, !tbaa !72
  %25 = icmp ne ptr %24, null
  br i1 %25, label %26, label %30

26:                                               ; preds = %22
  %27 = load ptr, ptr %2, align 8, !tbaa !91
  %28 = load ptr, ptr %27, align 8, !tbaa !72
  call void @free(ptr noundef %28) #13
  %29 = load ptr, ptr %2, align 8, !tbaa !91
  store ptr null, ptr %29, align 8, !tbaa !72
  br label %31

30:                                               ; preds = %22
  br label %31

31:                                               ; preds = %30, %26
  br label %32

32:                                               ; preds = %31, %6
  ret void
}

; Function Attrs: inlinehint nounwind uwtable
define internal void @Vec_IntFreeP(ptr noundef %0) #2 {
  %2 = alloca ptr, align 8
  store ptr %0, ptr %2, align 8, !tbaa !89
  %3 = load ptr, ptr %2, align 8, !tbaa !89
  %4 = load ptr, ptr %3, align 8, !tbaa !3
  %5 = icmp eq ptr %4, null
  br i1 %5, label %6, label %7

6:                                                ; preds = %1
  br label %32

7:                                                ; preds = %1
  %8 = load ptr, ptr %2, align 8, !tbaa !89
  %9 = load ptr, ptr %8, align 8, !tbaa !3
  %10 = getelementptr inbounds nuw %struct.Vec_Int_t_, ptr %9, i32 0, i32 2
  %11 = load ptr, ptr %10, align 8, !tbaa !15
  %12 = icmp ne ptr %11, null
  br i1 %12, label %13, label %21

13:                                               ; preds = %7
  %14 = load ptr, ptr %2, align 8, !tbaa !89
  %15 = load ptr, ptr %14, align 8, !tbaa !3
  %16 = getelementptr inbounds nuw %struct.Vec_Int_t_, ptr %15, i32 0, i32 2
  %17 = load ptr, ptr %16, align 8, !tbaa !15
  call void @free(ptr noundef %17) #13
  %18 = load ptr, ptr %2, align 8, !tbaa !89
  %19 = load ptr, ptr %18, align 8, !tbaa !3
  %20 = getelementptr inbounds nuw %struct.Vec_Int_t_, ptr %19, i32 0, i32 2
  store ptr null, ptr %20, align 8, !tbaa !15
  br label %22

21:                                               ; preds = %7
  br label %22

22:                                               ; preds = %21, %13
  %23 = load ptr, ptr %2, align 8, !tbaa !89
  %24 = load ptr, ptr %23, align 8, !tbaa !3
  %25 = icmp ne ptr %24, null
  br i1 %25, label %26, label %30

26:                                               ; preds = %22
  %27 = load ptr, ptr %2, align 8, !tbaa !89
  %28 = load ptr, ptr %27, align 8, !tbaa !3
  call void @free(ptr noundef %28) #13
  %29 = load ptr, ptr %2, align 8, !tbaa !89
  store ptr null, ptr %29, align 8, !tbaa !3
  br label %31

30:                                               ; preds = %22
  br label %31

31:                                               ; preds = %30, %26
  br label %32

32:                                               ; preds = %31, %6
  ret void
}

; Function Attrs: nounwind uwtable
define void @Dam_ManFree(ptr noundef %0) #0 {
  %2 = alloca ptr, align 8
  store ptr %0, ptr %2, align 8, !tbaa !80
  %3 = load ptr, ptr %2, align 8, !tbaa !80
  %4 = getelementptr inbounds nuw %struct.Dam_Man_t_, ptr %3, i32 0, i32 8
  call void @Vec_IntFreeP(ptr noundef %4)
  %5 = load ptr, ptr %2, align 8, !tbaa !80
  %6 = getelementptr inbounds nuw %struct.Dam_Man_t_, ptr %5, i32 0, i32 7
  call void @Vec_IntFreeP(ptr noundef %6)
  %7 = load ptr, ptr %2, align 8, !tbaa !80
  %8 = getelementptr inbounds nuw %struct.Dam_Man_t_, ptr %7, i32 0, i32 6
  call void @Vec_IntFreeP(ptr noundef %8)
  %9 = load ptr, ptr %2, align 8, !tbaa !80
  %10 = getelementptr inbounds nuw %struct.Dam_Man_t_, ptr %9, i32 0, i32 1
  call void @Vec_IntFreeP(ptr noundef %10)
  %11 = load ptr, ptr %2, align 8, !tbaa !80
  %12 = getelementptr inbounds nuw %struct.Dam_Man_t_, ptr %11, i32 0, i32 2
  call void @Vec_IntFreeP(ptr noundef %12)
  %13 = load ptr, ptr %2, align 8, !tbaa !80
  %14 = getelementptr inbounds nuw %struct.Dam_Man_t_, ptr %13, i32 0, i32 3
  call void @Vec_IntFreeP(ptr noundef %14)
  %15 = load ptr, ptr %2, align 8, !tbaa !80
  %16 = getelementptr inbounds nuw %struct.Dam_Man_t_, ptr %15, i32 0, i32 4
  call void @Vec_IntFreeP(ptr noundef %16)
  %17 = load ptr, ptr %2, align 8, !tbaa !80
  %18 = getelementptr inbounds nuw %struct.Dam_Man_t_, ptr %17, i32 0, i32 5
  call void @Vec_FltFreeP(ptr noundef %18)
  %19 = load ptr, ptr %2, align 8, !tbaa !80
  %20 = getelementptr inbounds nuw %struct.Dam_Man_t_, ptr %19, i32 0, i32 9
  call void @Vec_QueFreeP(ptr noundef %20)
  %21 = load ptr, ptr %2, align 8, !tbaa !80
  %22 = getelementptr inbounds nuw %struct.Dam_Man_t_, ptr %21, i32 0, i32 10
  %23 = load ptr, ptr %22, align 8, !tbaa !88
  call void @Hash_IntManStop(ptr noundef %23)
  %24 = load ptr, ptr %2, align 8, !tbaa !80
  %25 = icmp ne ptr %24, null
  br i1 %25, label %26, label %28

26:                                               ; preds = %1
  %27 = load ptr, ptr %2, align 8, !tbaa !80
  call void @free(ptr noundef %27) #13
  store ptr null, ptr %2, align 8, !tbaa !80
  br label %29

28:                                               ; preds = %1
  br label %29

29:                                               ; preds = %28, %26
  ret void
}