; Function Attrs: mustprogress nounwind willreturn uwtable
define void @Dam_ManFree(ptr noundef captures(none) %0) local_unnamed_addr #6 {
  %2 = getelementptr inbounds nuw i8, ptr %0, i64 64
  %3 = load ptr, ptr %2, align 8, !tbaa !82
  %4 = icmp eq ptr %3, null
  br i1 %4, label %Vec_IntFreeP.exit, label %5

5:                                                ; preds = %1
  %6 = getelementptr inbounds nuw i8, ptr %3, i64 8
  %7 = load ptr, ptr %6, align 8, !tbaa !10
  %.not.i = icmp eq ptr %7, null
  br i1 %.not.i, label %10, label %.thread.i

.thread.i:                                        ; preds = %5
  tail call void @free(ptr noundef nonnull %7) #27
  %8 = load ptr, ptr %2, align 8, !tbaa !82
  %9 = getelementptr inbounds nuw i8, ptr %8, i64 8
  store ptr null, ptr %9, align 8, !tbaa !10
  br label %10

10:                                               ; preds = %.thread.i, %5
  %11 = phi ptr [ %8, %.thread.i ], [ %3, %5 ]
  tail call void @free(ptr noundef nonnull %11) #27
  store ptr null, ptr %2, align 8, !tbaa !82
  br label %Vec_IntFreeP.exit

Vec_IntFreeP.exit:                                ; preds = %1, %10
  %12 = getelementptr inbounds nuw i8, ptr %0, i64 56
  %13 = load ptr, ptr %12, align 8, !tbaa !82
  %14 = icmp eq ptr %13, null
  br i1 %14, label %Vec_IntFreeP.exit14, label %15

15:                                               ; preds = %Vec_IntFreeP.exit
  %16 = getelementptr inbounds nuw i8, ptr %13, i64 8
  %17 = load ptr, ptr %16, align 8, !tbaa !10
  %.not.i12 = icmp eq ptr %17, null
  br i1 %.not.i12, label %20, label %.thread.i13

.thread.i13:                                      ; preds = %15
  tail call void @free(ptr noundef nonnull %17) #27
  %18 = load ptr, ptr %12, align 8, !tbaa !82
  %19 = getelementptr inbounds nuw i8, ptr %18, i64 8
  store ptr null, ptr %19, align 8, !tbaa !10
  br label %20

20:                                               ; preds = %.thread.i13, %15
  %21 = phi ptr [ %18, %.thread.i13 ], [ %13, %15 ]
  tail call void @free(ptr noundef nonnull %21) #27
  store ptr null, ptr %12, align 8, !tbaa !82
  br label %Vec_IntFreeP.exit14

Vec_IntFreeP.exit14:                              ; preds = %Vec_IntFreeP.exit, %20
  %22 = getelementptr inbounds nuw i8, ptr %0, i64 48
  %23 = load ptr, ptr %22, align 8, !tbaa !82
  %24 = icmp eq ptr %23, null
  br i1 %24, label %Vec_IntFreeP.exit17, label %25

25:                                               ; preds = %Vec_IntFreeP.exit14
  %26 = getelementptr inbounds nuw i8, ptr %23, i64 8
  %27 = load ptr, ptr %26, align 8, !tbaa !10
  %.not.i15 = icmp eq ptr %27, null
  br i1 %.not.i15, label %30, label %.thread.i16

.thread.i16:                                      ; preds = %25
  tail call void @free(ptr noundef nonnull %27) #27
  %28 = load ptr, ptr %22, align 8, !tbaa !82
  %29 = getelementptr inbounds nuw i8, ptr %28, i64 8
  store ptr null, ptr %29, align 8, !tbaa !10
  br label %30

30:                                               ; preds = %.thread.i16, %25
  %31 = phi ptr [ %28, %.thread.i16 ], [ %23, %25 ]
  tail call void @free(ptr noundef nonnull %31) #27
  store ptr null, ptr %22, align 8, !tbaa !82
  br label %Vec_IntFreeP.exit17

Vec_IntFreeP.exit17:                              ; preds = %Vec_IntFreeP.exit14, %30
  %32 = getelementptr inbounds nuw i8, ptr %0, i64 8
  %33 = load ptr, ptr %32, align 8, !tbaa !82
  %34 = icmp eq ptr %33, null
  br i1 %34, label %Vec_IntFreeP.exit20, label %35

35:                                               ; preds = %Vec_IntFreeP.exit17
  %36 = getelementptr inbounds nuw i8, ptr %33, i64 8
  %37 = load ptr, ptr %36, align 8, !tbaa !10
  %.not.i18 = icmp eq ptr %37, null
  br i1 %.not.i18, label %40, label %.thread.i19

.thread.i19:                                      ; preds = %35
  tail call void @free(ptr noundef nonnull %37) #27
  %38 = load ptr, ptr %32, align 8, !tbaa !82
  %39 = getelementptr inbounds nuw i8, ptr %38, i64 8
  store ptr null, ptr %39, align 8, !tbaa !10
  br label %40

40:                                               ; preds = %.thread.i19, %35
  %41 = phi ptr [ %38, %.thread.i19 ], [ %33, %35 ]
  tail call void @free(ptr noundef nonnull %41) #27
  store ptr null, ptr %32, align 8, !tbaa !82
  br label %Vec_IntFreeP.exit20

Vec_IntFreeP.exit20:                              ; preds = %Vec_IntFreeP.exit17, %40
  %42 = getelementptr inbounds nuw i8, ptr %0, i64 16
  %43 = load ptr, ptr %42, align 8, !tbaa !82
  %44 = icmp eq ptr %43, null
  br i1 %44, label %Vec_IntFreeP.exit23, label %45

45:                                               ; preds = %Vec_IntFreeP.exit20
  %46 = getelementptr inbounds nuw i8, ptr %43, i64 8
  %47 = load ptr, ptr %46, align 8, !tbaa !10
  %.not.i21 = icmp eq ptr %47, null
  br i1 %.not.i21, label %50, label %.thread.i22

.thread.i22:                                      ; preds = %45
  tail call void @free(ptr noundef nonnull %47) #27
  %48 = load ptr, ptr %42, align 8, !tbaa !82
  %49 = getelementptr inbounds nuw i8, ptr %48, i64 8
  store ptr null, ptr %49, align 8, !tbaa !10
  br label %50

50:                                               ; preds = %.thread.i22, %45
  %51 = phi ptr [ %48, %.thread.i22 ], [ %43, %45 ]
  tail call void @free(ptr noundef nonnull %51) #27
  store ptr null, ptr %42, align 8, !tbaa !82
  br label %Vec_IntFreeP.exit23

Vec_IntFreeP.exit23:                              ; preds = %Vec_IntFreeP.exit20, %50
  %52 = getelementptr inbounds nuw i8, ptr %0, i64 24
  %53 = load ptr, ptr %52, align 8, !tbaa !82
  %54 = icmp eq ptr %53, null
  br i1 %54, label %Vec_IntFreeP.exit26, label %55

55:                                               ; preds = %Vec_IntFreeP.exit23
  %56 = getelementptr inbounds nuw i8, ptr %53, i64 8
  %57 = load ptr, ptr %56, align 8, !tbaa !10
  %.not.i24 = icmp eq ptr %57, null
  br i1 %.not.i24, label %60, label %.thread.i25

.thread.i25:                                      ; preds = %55
  tail call void @free(ptr noundef nonnull %57) #27
  %58 = load ptr, ptr %52, align 8, !tbaa !82
  %59 = getelementptr inbounds nuw i8, ptr %58, i64 8
  store ptr null, ptr %59, align 8, !tbaa !10
  br label %60

60:                                               ; preds = %.thread.i25, %55
  %61 = phi ptr [ %58, %.thread.i25 ], [ %53, %55 ]
  tail call void @free(ptr noundef nonnull %61) #27
  store ptr null, ptr %52, align 8, !tbaa !82
  br label %Vec_IntFreeP.exit26

Vec_IntFreeP.exit26:                              ; preds = %Vec_IntFreeP.exit23, %60
  %62 = getelementptr inbounds nuw i8, ptr %0, i64 32
  %63 = load ptr, ptr %62, align 8, !tbaa !82
  %64 = icmp eq ptr %63, null
  br i1 %64, label %Vec_IntFreeP.exit29, label %65

65:                                               ; preds = %Vec_IntFreeP.exit26
  %66 = getelementptr inbounds nuw i8, ptr %63, i64 8
  %67 = load ptr, ptr %66, align 8, !tbaa !10
  %.not.i27 = icmp eq ptr %67, null
  br i1 %.not.i27, label %70, label %.thread.i28

.thread.i28:                                      ; preds = %65
  tail call void @free(ptr noundef nonnull %67) #27
  %68 = load ptr, ptr %62, align 8, !tbaa !82
  %69 = getelementptr inbounds nuw i8, ptr %68, i64 8
  store ptr null, ptr %69, align 8, !tbaa !10
  br label %70

70:                                               ; preds = %.thread.i28, %65
  %71 = phi ptr [ %68, %.thread.i28 ], [ %63, %65 ]
  tail call void @free(ptr noundef nonnull %71) #27
  store ptr null, ptr %62, align 8, !tbaa !82
  br label %Vec_IntFreeP.exit29

Vec_IntFreeP.exit29:                              ; preds = %Vec_IntFreeP.exit26, %70
  %72 = getelementptr inbounds nuw i8, ptr %0, i64 40
  %73 = load ptr, ptr %72, align 8, !tbaa !83
  %74 = icmp eq ptr %73, null
  br i1 %74, label %Vec_FltFreeP.exit, label %75

75:                                               ; preds = %Vec_IntFreeP.exit29
  %76 = getelementptr inbounds nuw i8, ptr %73, i64 8
  %77 = load ptr, ptr %76, align 8, !tbaa !62
  %.not.i30 = icmp eq ptr %77, null
  br i1 %.not.i30, label %80, label %.thread.i31

.thread.i31:                                      ; preds = %75
  tail call void @free(ptr noundef nonnull %77) #27
  %78 = load ptr, ptr %72, align 8, !tbaa !83
  %79 = getelementptr inbounds nuw i8, ptr %78, i64 8
  store ptr null, ptr %79, align 8, !tbaa !62
  br label %80

80:                                               ; preds = %.thread.i31, %75
  %81 = phi ptr [ %78, %.thread.i31 ], [ %73, %75 ]
  tail call void @free(ptr noundef nonnull %81) #27
  store ptr null, ptr %72, align 8, !tbaa !83
  br label %Vec_FltFreeP.exit

Vec_FltFreeP.exit:                                ; preds = %Vec_IntFreeP.exit29, %80
  %82 = getelementptr inbounds nuw i8, ptr %0, i64 72
  %83 = load ptr, ptr %82, align 8, !tbaa !84
  %.not.i32 = icmp eq ptr %83, null
  br i1 %.not.i32, label %Vec_QueFreeP.exit, label %84

84:                                               ; preds = %Vec_FltFreeP.exit
  %85 = getelementptr inbounds nuw i8, ptr %83, i64 16
  %86 = load ptr, ptr %85, align 8, !tbaa !85
  %.not.i.i = icmp eq ptr %86, null
  br i1 %.not.i.i, label %88, label %87

87:                                               ; preds = %84
  tail call void @free(ptr noundef nonnull %86) #27
  store ptr null, ptr %85, align 8, !tbaa !85
  br label %88

88:                                               ; preds = %87, %84
  %89 = getelementptr inbounds nuw i8, ptr %83, i64 8
  %90 = load ptr, ptr %89, align 8, !tbaa !88
  %.not10.i.i = icmp eq ptr %90, null
  br i1 %.not10.i.i, label %Vec_QueFree.exit.i, label %91

91:                                               ; preds = %88
  tail call void @free(ptr noundef nonnull %90) #27
  br label %Vec_QueFree.exit.i

Vec_QueFree.exit.i:                               ; preds = %91, %88
  tail call void @free(ptr noundef nonnull %83) #27
  br label %Vec_QueFreeP.exit

Vec_QueFreeP.exit:                                ; preds = %Vec_FltFreeP.exit, %Vec_QueFree.exit.i
  store ptr null, ptr %82, align 8, !tbaa !84
  %92 = getelementptr inbounds nuw i8, ptr %0, i64 80
  %93 = load ptr, ptr %92, align 8, !tbaa !89
  %94 = getelementptr inbounds nuw i8, ptr %93, i64 8
  %95 = load ptr, ptr %94, align 8, !tbaa !90
  %96 = getelementptr inbounds nuw i8, ptr %95, i64 8
  %97 = load ptr, ptr %96, align 8, !tbaa !10
  %.not.i.i33 = icmp eq ptr %97, null
  br i1 %.not.i.i33, label %Vec_IntFree.exit.i, label %98

98:                                               ; preds = %Vec_QueFreeP.exit
  tail call void @free(ptr noundef nonnull %97) #27
  br label %Vec_IntFree.exit.i

Vec_IntFree.exit.i:                               ; preds = %98, %Vec_QueFreeP.exit
  tail call void @free(ptr noundef nonnull %95) #27
  %99 = load ptr, ptr %93, align 8, !tbaa !92
  %100 = getelementptr inbounds nuw i8, ptr %99, i64 8
  %101 = load ptr, ptr %100, align 8, !tbaa !10
  %.not.i4.i = icmp eq ptr %101, null
  br i1 %.not.i4.i, label %103, label %102

102:                                              ; preds = %Vec_IntFree.exit.i
  tail call void @free(ptr noundef nonnull %101) #27
  br label %103

103:                                              ; preds = %Vec_IntFree.exit.i, %102
  tail call void @free(ptr noundef nonnull %99) #27
  tail call void @free(ptr noundef nonnull %93) #27
  tail call void @free(ptr noundef nonnull %0) #27
  ret void
}